target datalayout = "e-m:e-p270:32:32-p271:32:32-p272:64:64-i64:64-i128:128-f80:128-n8:16:32:64-S128"
target triple = "x86_64-pc-linux-gnu"

@.str.75 = private unnamed_addr constant [29 x i8] c"quarantined by clamav-milter\00", align 1
@.str.76 = private unnamed_addr constant [30 x i8] c"Failed to quarantine message\0A\00", align 1

; Function Attrs: nounwind uwtable
define internal i32 @action_quarantine(ptr noundef %0) #0 {
  %2 = alloca i32, align 4
  %3 = alloca ptr, align 8
  store ptr %0, ptr %3, align 8
  %4 = load ptr, ptr %3, align 8
  %5 = call i32 @smfi_quarantine(ptr noundef %4, ptr noundef @.str.75)
  %6 = icmp ne i32 %5, 0
  br i1 %6, label %7, label %9

7:                                                ; preds = %1
  %8 = call i32 (i32, ptr, ...) @logg(i32 noundef 4, ptr noundef @.str.76)
  store i32 4, ptr %2, align 4
  br label %10

9:                                                ; preds = %1
  store i32 3, ptr %2, align 4
  br label %10

10:                                               ; preds = %9, %7
  %11 = load i32, ptr %2, align 4
  ret i32 %11
}