; Function Attrs: nounwind uwtable
define internal noundef i32 @action_quarantine(ptr noundef %0) #0 {
  %2 = tail call i32 @smfi_quarantine(ptr noundef %0, ptr noundef nonnull @.str.75) #17
  %.not = icmp eq i32 %2, 0
  br i1 %.not, label %5, label %3

3:                                                ; preds = %1
  %4 = tail call i32 (i32, ptr, ...) @logg(i32 noundef 4, ptr noundef nonnull @.str.76) #17
  br label %5

5:                                                ; preds = %1, %3
  %.0 = phi i32 [ 4, %3 ], [ 3, %1 ]
  ret i32 %.0
}